target datalayout = "e-m:e-p270:32:32-p271:32:32-p272:64:64-i64:64-i128:128-f80:128-n8:16:32:64-S128"
target triple = "x86_64-pc-linux-gnu"

; Function Attrs: null_pointer_is_valid sspstrong uwtable
define hidden void @dissect_cipsafety_snn(ptr noundef %0, ptr noundef %1, ptr noundef %2, i32 noundef %3, i32 noundef %4, i32 noundef %5, i32 noundef %6) #0 {
  %8 = alloca ptr, align 8
  %9 = alloca ptr, align 8
  %10 = alloca ptr, align 8
  %11 = alloca i32, align 4
  %12 = alloca i32, align 4
  %13 = alloca i32, align 4
  %14 = alloca i32, align 4
  %15 = alloca i16, align 2
  store ptr %0, ptr %8, align 8
  store ptr %1, ptr %9, align 8
  store ptr %2, ptr %10, align 8
  store i32 %3, ptr %11, align 4
  store i32 %4, ptr %12, align 4
  store i32 %5, ptr %13, align 4
  store i32 %6, ptr %14, align 4
  call void @llvm.lifetime.start.p0(i64 2, ptr %15) #11
  %16 = load ptr, ptr %9, align 8
  %17 = load i32, ptr %11, align 4
  %18 = add i32 %17, 4
  %19 = call zeroext i16 @tvb_get_letohs(ptr noundef %16, i32 noundef %18)
  store i16 %19, ptr %15, align 2
  %20 = load i16, ptr %15, align 2
  %21 = zext i16 %20 to i32
  %22 = icmp sge i32 %21, 11688
  br i1 %22, label %23, label %32

23:                                               ; preds = %7
  %24 = load i16, ptr %15, align 2
  %25 = zext i16 %24 to i32
  %26 = icmp sle i32 %25, 65534
  br i1 %26, label %27, label %32

27:                                               ; preds = %23
  %28 = load ptr, ptr %8, align 8
  %29 = load ptr, ptr %9, align 8
  %30 = load i32, ptr %11, align 4
  %31 = load i32, ptr %12, align 4
  call void @dissect_cip_date_and_time(ptr noundef %28, ptr noundef %29, i32 noundef %30, i32 noundef %31)
  br label %44

32:                                               ; preds = %23, %7
  %33 = load ptr, ptr %8, align 8
  %34 = load i32, ptr %14, align 4
  %35 = load ptr, ptr %9, align 8
  %36 = load i32, ptr %11, align 4
  %37 = call ptr @proto_tree_add_item(ptr noundef %33, i32 noundef %34, ptr noundef %35, i32 noundef %36, i32 noundef 4, i32 noundef -2147483648)
  %38 = load ptr, ptr %8, align 8
  %39 = load i32, ptr %13, align 4
  %40 = load ptr, ptr %9, align 8
  %41 = load i32, ptr %11, align 4
  %42 = add i32 %41, 4
  %43 = call ptr @proto_tree_add_item(ptr noundef %38, i32 noundef %39, ptr noundef %40, i32 noundef %42, i32 noundef 2, i32 noundef -2147483648)
  br label %44

44:                                               ; preds = %32, %27
  call void @llvm.lifetime.end.p0(i64 2, ptr %15) #11
  ret void
}

; Function Attrs: null_pointer_is_valid sspstrong uwtable
define hidden void @dissect_unid(ptr noundef %0, ptr noundef %1, i32 noundef %2, ptr noundef %3, ptr noundef %4, i32 noundef %5, i32 noundef %6, i32 noundef %7, i32 noundef %8, i32 noundef %9, i32 noundef %10) #0 {
  %12 = alloca ptr, align 8
  %13 = alloca ptr, align 8
  %14 = alloca i32, align 4
  %15 = alloca ptr, align 8
  %16 = alloca ptr, align 8
  %17 = alloca i32, align 4
  %18 = alloca i32, align 4
  %19 = alloca i32, align 4
  %20 = alloca i32, align 4
  %21 = alloca i32, align 4
  %22 = alloca i32, align 4
  %23 = alloca ptr, align 8
  %24 = alloca ptr, align 8
  store ptr %0, ptr %12, align 8
  store ptr %1, ptr %13, align 8
  store i32 %2, ptr %14, align 4
  store ptr %3, ptr %15, align 8
  store ptr %4, ptr %16, align 8
  store i32 %5, ptr %17, align 4
  store i32 %6, ptr %18, align 4
  store i32 %7, ptr %19, align 4
  store i32 %8, ptr %20, align 4
  store i32 %9, ptr %21, align 4
  store i32 %10, ptr %22, align 4
  call void @llvm.lifetime.start.p0(i64 8, ptr %23) #11
  call void @llvm.lifetime.start.p0(i64 8, ptr %24) #11
  %25 = load ptr, ptr %15, align 8
  %26 = load i32, ptr %21, align 4
  %27 = call ptr @proto_item_add_subtree(ptr noundef %25, i32 noundef %26)
  store ptr %27, ptr %23, align 8
  %28 = load ptr, ptr %23, align 8
  %29 = load ptr, ptr %12, align 8
  %30 = load i32, ptr %14, align 4
  %31 = load i32, ptr %22, align 4
  %32 = load ptr, ptr %16, align 8
  %33 = call ptr @proto_tree_add_subtree(ptr noundef %28, ptr noundef %29, i32 noundef %30, i32 noundef 6, i32 noundef %31, ptr noundef null, ptr noundef %32)
  store ptr %33, ptr %24, align 8
  %34 = load ptr, ptr %24, align 8
  %35 = load ptr, ptr %12, align 8
  %36 = load ptr, ptr %13, align 8
  %37 = load i32, ptr %14, align 4
  %38 = load i32, ptr %17, align 4
  %39 = load i32, ptr %18, align 4
  %40 = load i32, ptr %19, align 4
  call void @dissect_cipsafety_snn(ptr noundef %34, ptr noundef %35, ptr noundef %36, i32 noundef %37, i32 noundef %38, i32 noundef %39, i32 noundef %40)
  %41 = load ptr, ptr %23, align 8
  %42 = load i32, ptr %20, align 4
  %43 = load ptr, ptr %12, align 8
  %44 = load i32, ptr %14, align 4
  %45 = add i32 %44, 6
  %46 = call ptr @proto_tree_add_item(ptr noundef %41, i32 noundef %42, ptr noundef %43, i32 noundef %45, i32 noundef 4, i32 noundef -2147483648)
  call void @llvm.lifetime.end.p0(i64 8, ptr %24) #11
  call void @llvm.lifetime.end.p0(i64 8, ptr %23) #11
  ret void
}