; Function Attrs: null_pointer_is_valid sspstrong uwtable
define hidden void @dissect_unid(ptr noundef %0, ptr readnone captures(none) %1, i32 noundef %2, ptr noundef %3, ptr noundef %4, i32 noundef %5, i32 noundef %6, i32 noundef %7, i32 noundef %8, i32 noundef %9, i32 noundef %10) local_unnamed_addr #2 {
  %12 = tail call ptr @proto_item_add_subtree(ptr noundef %3, i32 noundef %9)
  %13 = tail call ptr @proto_tree_add_subtree(ptr noundef %12, ptr noundef %0, i32 noundef %2, i32 noundef 6, i32 noundef %10, ptr noundef null, ptr noundef %4)
  %14 = add i32 %2, 4
  %15 = tail call zeroext i16 @tvb_get_letohs(ptr noundef %0, i32 noundef %14)
  %16 = add i16 %15, -11688
  %or.cond.i = icmp ult i16 %16, -11689
  br i1 %or.cond.i, label %17, label %18

17:                                               ; preds = %11
  tail call void @dissect_cip_date_and_time(ptr noundef %13, ptr noundef %0, i32 noundef %2, i32 noundef %5)
  br label %dissect_cipsafety_snn.exit

18:                                               ; preds = %11
  %19 = tail call ptr @proto_tree_add_item(ptr noundef %13, i32 noundef %7, ptr noundef %0, i32 noundef %2, i32 noundef 4, i32 noundef -2147483648)
  %20 = tail call ptr @proto_tree_add_item(ptr noundef %13, i32 noundef %6, ptr noundef %0, i32 noundef %14, i32 noundef 2, i32 noundef -2147483648)
  br label %dissect_cipsafety_snn.exit

dissect_cipsafety_snn.exit:                       ; preds = %17, %18
  %21 = add i32 %2, 6
  %22 = tail call ptr @proto_tree_add_item(ptr noundef %12, i32 noundef %8, ptr noundef %0, i32 noundef %21, i32 noundef 4, i32 noundef -2147483648)
  ret void
}